Certificate:
    Data:
        Version: 3 (0x2)
        Serial Number: 1 (0x1)
    Signature Algorithm: sha256WithRSAEncryption
        Issuer: CN=ChangeMe
        Validity
            Not Before: Feb  2 10:21:39 2017 GMT
            Not After : Jan 31 10:21:39 2027 GMT
        Subject: CN=server
        Subject Public Key Info:
            Public Key Algorithm: rsaEncryption
                Public-Key: (2048 bit)
                Modulus:
                    00:be:f1:a9:f3:18:36:2a:27:4b:9d:ee:56:b1:0a:
                    8f:fa:ee:25:12:fd:f2:98:f1:b9:b3:c1:5b:8f:18:
                    28:e5:b1:c7:01:22:3e:86:c6:37:6a:ac:1c:82:c5:
                    bc:61:28:08:b3:53:93:9d:20:97:35:8b:0e:c2:30:
                    39:5b:3b:75:03:82:3f:ef:ea:0d:8b:1b:70:fe:fb:
                    41:5c:ab:cc:cc:a9:bc:70:ec:87:9b:4f:be:6e:99:
                    c3:c0:25:4e:cd:e0:48:a4:a3:51:bc:1b:fb:e3:2a:
                    28:ac:f2:62:9b:1a:2d:a4:b4:17:16:bb:9d:35:d1:
                    3e:a7:0b:03:3b:a0:40:ca:a3:66:84:e5:78:5c:62:
                    36:75:f7:1d:1b:ad:24:d0:c3:b9:e6:78:25:d6:99:
                    05:57:0c:04:7e:fd:45:88:e2:1d:ee:8b:24:de:ce:
                    e3:11:14:9c:ea:70:2b:ab:44:d8:15:d1:a7:ac:15:
                    8b:d8:85:bf:00:e2:76:58:e3:fc:72:56:7b:ce:76:
                    bb:85:f9:88:4b:d2:b2:0e:7d:e1:e9:78:c0:3d:f7:
                    1f:ca:ae:48:86:ef:95:96:61:04:f2:7d:21:bf:2b:
                    62:31:9e:fe:88:c9:68:41:b3:70:78:ad:5e:05:b5:
                    fd:ec:61:75:6f:57:42:e9:17:54:d3:c0:19:c2:60:
                    e0:bb
                Exponent: 65537 (0x10001)
        X509v3 extensions:
            X509v3 Basic Constraints: 
                CA:FALSE
            X509v3 Subject Key Identifier: 
                40:89:FC:FB:64:F7:28:35:47:11:32:15:06:A8:B0:75:F1:EB:CB:FF
            X509v3 Authority Key Identifier: 
                keyid:B9:F9:4A:A0:39:BF:59:0A:03:CC:4E:8A:FD:F3:24:36:AD:07:E3:71
                DirName:/CN=ChangeMe
                serial:F0:BE:54:D2:91:84:9F:38

            X509v3 Extended Key Usage: 
                TLS Web Server Authentication
            X509v3 Key Usage: 
                Digital Signature, Key Encipherment
    Signature Algorithm: sha256WithRSAEncryption
         09:36:54:75:9c:62:d9:c9:77:bb:5a:da:55:45:6b:9d:38:d2:
         0b:86:9a:9f:4d:50:34:79:0c:5c:eb:cb:fc:54:f3:5a:f7:85:
         38:c9:59:d3:40:7d:73:ce:87:61:c6:d9:9a:14:24:5c:55:51:
         55:c6:32:6c:b1:66:d0:a3:6b:11:d7:1a:d8:1c:89:07:23:53:
         20:d1:3e:05:16:91:f2:80:b1:a1:57:14:1d:e8:b8:44:bb:46:
         23:6d:1c:b6:8d:ae:5a:98:53:c4:08:4c:3c:cc:2d:12:a9:93:
         21:c1:9f:97:dd:cb:8a:69:1a:13:75:a5:f4:8f:40:45:ce:f0:
         05:ff:3d:c6:e7:48:8e:fe:db:28:a9:46:f6:62:ed:d7:37:82:
         3b:8f:48:4b:4e:f0:71:ae:df:05:72:5a:ad:92:d1:71:a4:ab:
         f7:c6:ef:bc:81:10:02:62:dd:ec:96:7b:61:13:7c:24:3a:57:
         8d:bd:c0:75:08:b2:1f:ad:14:e9:c0:0e:db:3f:14:d7:be:f5:
         88:cf:04:f0:f6:82:d0:8d:5c:79:21:f6:fe:be:24:ad:06:37:
         ed:4c:31:38:6a:96:1c:4c:1d:fa:12:bd:7a:0a:a9:c3:4c:6c:
         53:0e:cc:7a:6c:0c:d3:1b:93:a6:7a:c3:f0:ee:f9:1c:dd:64:
         87:49:83:2e
-----BEGIN CERTIFICATE-----
MIIDNDCCAhygAwIBAgIBATANBgkqhkiG9w0BAQsFADATMREwDwYDVQQDEwhDaGFu
Z2VNZTAeFw0xNzAyMDIxMDIxMzlaFw0yNzAxMzExMDIxMzlaMBExDzANBgNVBAMT
BnNlcnZlcjCCASIwDQYJKoZIhvcNAQEBBQADggEPADCCAQoCggEBAL7xqfMYNion
S53uVrEKj/ruJRL98pjxubPBW48YKOWxxwEiPobGN2qsHILFvGEoCLNTk50glzWL
DsIwOVs7dQOCP+/qDYsbcP77QVyrzMypvHDsh5tPvm6Zw8AlTs3gSKSjUbwb++Mq
KKzyYpsaLaS0Fxa7nTXRPqcLAzugQMqjZoTleFxiNnX3HRutJNDDueZ4JdaZBVcM
BH79RYjiHe6LJN7O4xEUnOpwK6tE2BXRp6wVi9iFvwDidljj/HJWe852u4X5iEvS
sg594el4wD33H8quSIbvlZZhBPJ9Ib8rYjGe/ojJaEGzcHitXgW1/exhdW9XQukX
VNPAGcJg4LsCAwEAAaOBlDCBkTAJBgNVHRMEAjAAMB0GA1UdDgQWBBRAifz7ZPco
NUcRMhUGqLB18evL/zBDBgNVHSMEPDA6gBS5+UqgOb9ZCgPMTor98yQ2rQfjcaEX
pBUwEzERMA8GA1UEAxMIQ2hhbmdlTWWCCQDwvlTSkYSfODATBgNVHSUEDDAKBggr
BgEFBQcDATALBgNVHQ8EBAMCBaAwDQYJKoZIhvcNAQELBQADggEBAAk2VHWcYtnJ
d7ta2lVFa5040guGmp9NUDR5DFzry/xU81r3hTjJWdNAfXPOh2HG2ZoUJFxVUVXG
MmyxZtCjaxHXGtgciQcjUyDRPgUWkfKAsaFXFB3ouES7RiNtHLaNrlqYU8QITDzM
LRKpkyHBn5fdy4ppGhN1pfSPQEXO8AX/PcbnSI7+2yipRvZi7dc3gjuPSEtO8HGu
3wVyWq2S0XGkq/fG77yBEAJi3eyWe2ETfCQ6V429wHUIsh+tFOnADts/FNe+9YjP
BPD2gtCNXHkh9v6+JK0GN+1MMThqlhxMHfoSvXoKqcNMbFMOzHpsDNMbk6Z6w/Du
+RzdZIdJgy4=
-----END CERTIFICATE-----