Certificate:
    Data:
        Version: 3 (0x2)
        Serial Number: 2 (0x2)
    Signature Algorithm: sha256WithRSAEncryption
        Issuer: CN=ChangeMe
        Validity
            Not Before: Feb  2 10:21:39 2017 GMT
            Not After : Jan 31 10:21:39 2027 GMT
        Subject: CN=client
        Subject Public Key Info:
            Public Key Algorithm: rsaEncryption
                Public-Key: (2048 bit)
                Modulus:
                    00:db:1d:1d:30:48:22:50:8d:6d:be:96:87:b7:c5:
                    84:cb:63:ed:f4:4f:ba:08:f0:33:13:e8:05:46:9a:
                    a3:c7:69:56:6c:90:7c:03:5c:de:30:7e:b6:42:3c:
                    bc:eb:06:df:bb:ba:e4:1a:d0:7f:94:10:d1:4e:68:
                    3b:92:cd:c5:18:34:15:d3:e5:28:83:bd:8d:41:76:
                    3b:0f:1e:bc:c1:39:5e:b4:04:d0:29:39:0e:19:3d:
                    f6:18:37:36:ea:29:fd:31:46:57:cd:82:31:79:bc:
                    67:64:e3:9f:de:ee:53:ba:62:2c:70:2c:c0:4e:24:
                    6b:fa:50:da:f7:e9:d4:0d:e7:35:d0:1e:b3:88:9c:
                    08:5b:cb:38:94:29:7f:c6:f1:a0:84:06:d3:37:9a:
                    36:5d:19:4b:65:f3:74:70:3b:26:b3:bf:2d:d0:3e:
                    29:d1:8f:29:0b:80:5d:93:46:e1:0c:0a:35:05:05:
                    cb:04:e5:1f:a0:99:0c:0d:64:79:de:26:c0:eb:c6:
                    8d:cf:ab:ee:dc:61:4d:39:cc:85:ec:bb:eb:a6:6e:
                    bb:f4:0c:1c:59:59:0c:9d:b2:e3:db:79:8b:af:69:
                    93:9e:bd:d8:8b:72:51:4c:63:01:69:28:9d:09:e7:
                    04:b8:04:7b:71:e0:eb:4a:66:92:10:0b:59:ee:31:
                    b4:eb
                Exponent: 65537 (0x10001)
        X509v3 extensions:
            X509v3 Basic Constraints:
                CA:FALSE
            X509v3 Subject Key Identifier:
                68:44:CA:A0:20:9D:46:71:80:D4:6B:96:93:8C:F2:6B:1B:DE:71:33
            X509v3 Authority Key Identifier:
                keyid:B9:F9:4A:A0:39:BF:59:0A:03:CC:4E:8A:FD:F3:24:36:AD:07:E3:71
                DirName:/CN=ChangeMe
                serial:F0:BE:54:D2:91:84:9F:38

            X509v3 Extended Key Usage:
                TLS Web Client Authentication
            X509v3 Key Usage:
                Digital Signature
    Signature Algorithm: sha256WithRSAEncryption
         9e:36:40:fd:06:76:8f:ff:49:52:e5:56:23:a1:ad:de:f6:82:
         43:f3:56:66:4c:59:25:79:82:46:b0:59:2d:14:87:95:93:e1:
         ea:c2:fb:bf:9d:23:2a:66:23:f2:f9:fb:68:b5:e5:84:9c:52:
         7f:07:e6:33:0d:a5:43:12:b1:94:8f:c8:f6:ca:dd:60:4d:e8:
         1a:3a:9e:71:d2:98:0d:bd:ff:4f:c5:75:b5:14:44:e0:cc:0b:
         89:fa:4f:ae:83:29:ae:34:9b:c2:78:6f:91:1a:bf:18:ce:4d:
         58:a5:e8:f5:f5:04:e8:ac:54:73:68:3a:5b:63:7b:9f:53:6a:
         97:85:f9:0e:b6:6e:68:0c:aa:a5:6e:92:e9:d9:b0:75:2a:e8:
         85:2e:0b:7f:1a:fb:e7:a0:16:b1:81:c8:15:0d:dd:6f:08:c5:
         90:ef:a5:d6:d3:28:a8:95:f1:97:13:ec:61:38:52:1a:ac:c1:
         a0:06:5b:d4:2d:ec:19:81:ed:1f:ce:4f:e7:5b:c5:a9:ac:69:
         10:a7:d2:1f:8f:17:1e:2f:80:a9:dc:4c:f8:77:5e:75:cd:08:
         a0:3d:00:86:fa:d2:66:26:fb:d7:01:42:81:1c:c1:4f:b9:49:
         e1:9a:df:b9:02:8a:35:fe:b9:0e:a9:1a:cd:3c:35:f1:3d:81:
         94:50:a2:b0
-----BEGIN CERTIFICATE-----
MIIDNDCCAhygAwIBAgIBAjANBgkqhkiG9w0BAQsFADATMREwDwYDVQQDEwhDaGFu
Z2VNZTAeFw0xNzAyMDIxMDIxMzlaFw0yNzAxMzExMDIxMzlaMBExDzANBgNVBAMT
BmNsaWVudDCCASIwDQYJKoZIhvcNAQEBBQADggEPADCCAQoCggEBANsdHTBIIlCN
bb6Wh7fFhMtj7fRPugjwMxPoBUaao8dpVmyQfANc3jB+tkI8vOsG37u65BrQf5QQ
0U5oO5LNxRg0FdPlKIO9jUF2Ow8evME5XrQE0Ck5Dhk99hg3Nuop/TFGV82CMXm8
Z2Tjn97uU7piLHAswE4ka/pQ2vfp1A3nNdAes4icCFvLOJQpf8bxoIQG0zeaNl0Z
S2XzdHA7JrO/LdA+KdGPKQuAXZNG4QwKNQUFywTlH6CZDA1ked4mwOvGjc+r7txh
TTnMhey766Zuu/QMHFlZDJ2y49t5i69pk5692ItyUUxjAWkonQnnBLgEe3Hg60pm
khALWe4xtOsCAwEAAaOBlDCBkTAJBgNVHRMEAjAAMB0GA1UdDgQWBBRoRMqgIJ1G
cYDUa5aTjPJrG95xMzBDBgNVHSMEPDA6gBS5+UqgOb9ZCgPMTor98yQ2rQfjcaEX
pBUwEzERMA8GA1UEAxMIQ2hhbmdlTWWCCQDwvlTSkYSfODATBgNVHSUEDDAKBggr
BgEFBQcDAjALBgNVHQ8EBAMCB4AwDQYJKoZIhvcNAQELBQADggEBAJ42QP0Gdo//
SVLlViOhrd72gkPzVmZMWSV5gkawWS0Uh5WT4erC+7+dIypmI/L5+2i15YScUn8H
5jMNpUMSsZSPyPbK3WBN6Bo6nnHSmA29/0/FdbUURODMC4n6T66DKa40m8J4b5Ea
vxjOTVil6PX1BOisVHNoOltje59TapeF+Q62bmgMqqVukunZsHUq6IUuC38a++eg
FrGByBUN3W8IxZDvpdbTKKiV8ZcT7GE4UhqswaAGW9Qt7BmB7R/OT+dbxamsaRCn
0h+PFx4vgKncTPh3XnXNCKA9AIb60mYm+9cBQoEcwU+5SeGa37kCijX+uQ6pGs08
NfE9gZRQorA=
-----END CERTIFICATE-----